; Function Attrs: nounwind uwtable
define noalias nonnull ptr @l_Fin_hIterate(ptr noundef readnone captures(none) %0) local_unnamed_addr #0 {
  tail call void @lean_inc_heartbeat() #3
  %2 = tail call noalias ptr @mi_malloc_small(i64 noundef 24) #3
  %3 = icmp eq ptr %2, null
  br i1 %3, label %4, label %lean_alloc_closure.exit

4:                                                ; preds = %1
  tail call void @lean_internal_panic_out_of_memory() #4
  unreachable

lean_alloc_closure.exit:                          ; preds = %1
  %5 = getelementptr inbounds nuw i8, ptr %2, i64 4
  store i32 1, ptr %2, align 4, !tbaa !6
  store i32 -184549352, ptr %5, align 4
  %6 = getelementptr inbounds nuw i8, ptr %2, i64 8
  store ptr @l_Fin_hIterate___rarg___boxed, ptr %6, align 8, !tbaa !11
  %7 = getelementptr inbounds nuw i8, ptr %2, i64 16
  store i16 3, ptr %7, align 8, !tbaa !13
  %8 = getelementptr inbounds nuw i8, ptr %2, i64 18
  store i16 0, ptr %8, align 2, !tbaa !13
  ret ptr %2
}